#include <math.h>
#include <stdio.h>
#include <stdlib.h>
#include <string.h>

main ()
{
     char s[100000];
     char temp;
     int lens,i,j,k,n,z,pt,num;
     int a[26][2];
     
     scanf("%d",&n);
     for (z=1;z<=n;z++)
     {
         num=0;
         for (i=0;i<=25;i++) for (j=0;j<=1;j++) a[i][j]=0;
         scanf("%s",&s);
         for (pt=0;s[pt]!='\0';pt++)
         {
             temp=s[pt]-'a';
             if (a[temp][1]==0)
             {
                num++;
                a[temp][1]=num;
             }
             a[temp][0]++;
         }
         
         pt=-1;k=31;
         for (i=0;i<=25;i++)
         {
             if (a[i][0]==1)
             {
                if (k>a[i][1])
                {
                   pt=i;
                   k=a[i][1];
                }
             }
         }
         
         if (pt==-1) printf("no\n");
         else printf("%c\n",pt+'a');
     }
}
     
