; ModuleID = '37/1678.c'
source_filename = "37/1678.c"
target datalayout = "e-m:e-p270:32:32-p271:32:32-p272:64:64-i64:64-f80:128-n8:16:32:64-S128"
target triple = "x86_64-pc-linux-gnu"

@.str = private unnamed_addr constant [3 x i8] c"%d\00", align 1
@.str.1 = private unnamed_addr constant [3 x i8] c"%s\00", align 1
@.str.2 = private unnamed_addr constant [4 x i8] c"no\0A\00", align 1
@.str.3 = private unnamed_addr constant [4 x i8] c"%c\0A\00", align 1

; Function Attrs: noinline nounwind uwtable
define dso_local i32 @main() #0 {
  %1 = alloca i32, align 4
  %2 = alloca [100000 x i8], align 16
  %3 = alloca i8, align 1
  %4 = alloca i32, align 4
  %5 = alloca i32, align 4
  %6 = alloca i32, align 4
  %7 = alloca i32, align 4
  %8 = alloca i32, align 4
  %9 = alloca i32, align 4
  %10 = alloca i32, align 4
  %11 = alloca i32, align 4
  %12 = alloca [26 x [2 x i32]], align 16
  store i32 0, i32* %1, align 4
  %13 = call i32 (i8*, ...) @__isoc99_scanf(i8* getelementptr inbounds ([3 x i8], [3 x i8]* @.str, i64 0, i64 0), i32* %8)
  store i32 1, i32* %9, align 4
  br label %14

14:                                               ; preds = %122, %0
  %15 = load i32, i32* %9, align 4
  %16 = load i32, i32* %8, align 4
  %17 = icmp sle i32 %15, %16
  br i1 %17, label %18, label %125

18:                                               ; preds = %14
  store i32 0, i32* %11, align 4
  store i32 0, i32* %5, align 4
  br label %19

19:                                               ; preds = %37, %18
  %20 = load i32, i32* %5, align 4
  %21 = icmp sle i32 %20, 25
  br i1 %21, label %22, label %40

22:                                               ; preds = %19
  store i32 0, i32* %6, align 4
  br label %23

23:                                               ; preds = %33, %22
  %24 = load i32, i32* %6, align 4
  %25 = icmp sle i32 %24, 1
  br i1 %25, label %26, label %36

26:                                               ; preds = %23
  %27 = load i32, i32* %5, align 4
  %28 = sext i32 %27 to i64
  %29 = getelementptr inbounds [26 x [2 x i32]], [26 x [2 x i32]]* %12, i64 0, i64 %28
  %30 = load i32, i32* %6, align 4
  %31 = sext i32 %30 to i64
  %32 = getelementptr inbounds [2 x i32], [2 x i32]* %29, i64 0, i64 %31
  store i32 0, i32* %32, align 4
  br label %33

33:                                               ; preds = %26
  %34 = load i32, i32* %6, align 4
  %35 = add nsw i32 %34, 1
  store i32 %35, i32* %6, align 4
  br label %23

36:                                               ; preds = %23
  br label %37

37:                                               ; preds = %36
  %38 = load i32, i32* %5, align 4
  %39 = add nsw i32 %38, 1
  store i32 %39, i32* %5, align 4
  br label %19

40:                                               ; preds = %19
  %41 = call i32 (i8*, ...) @__isoc99_scanf(i8* getelementptr inbounds ([3 x i8], [3 x i8]* @.str.1, i64 0, i64 0), [100000 x i8]* %2)
  store i32 0, i32* %10, align 4
  br label %42

42:                                               ; preds = %78, %40
  %43 = load i32, i32* %10, align 4
  %44 = sext i32 %43 to i64
  %45 = getelementptr inbounds [100000 x i8], [100000 x i8]* %2, i64 0, i64 %44
  %46 = load i8, i8* %45, align 1
  %47 = sext i8 %46 to i32
  %48 = icmp ne i32 %47, 0
  br i1 %48, label %49, label %81

49:                                               ; preds = %42
  %50 = load i32, i32* %10, align 4
  %51 = sext i32 %50 to i64
  %52 = getelementptr inbounds [100000 x i8], [100000 x i8]* %2, i64 0, i64 %51
  %53 = load i8, i8* %52, align 1
  %54 = sext i8 %53 to i32
  %55 = sub nsw i32 %54, 97
  %56 = trunc i32 %55 to i8
  store i8 %56, i8* %3, align 1
  %57 = load i8, i8* %3, align 1
  %58 = sext i8 %57 to i64
  %59 = getelementptr inbounds [26 x [2 x i32]], [26 x [2 x i32]]* %12, i64 0, i64 %58
  %60 = getelementptr inbounds [2 x i32], [2 x i32]* %59, i64 0, i64 1
  %61 = load i32, i32* %60, align 4
  %62 = icmp eq i32 %61, 0
  br i1 %62, label %63, label %71

63:                                               ; preds = %49
  %64 = load i32, i32* %11, align 4
  %65 = add nsw i32 %64, 1
  store i32 %65, i32* %11, align 4
  %66 = load i32, i32* %11, align 4
  %67 = load i8, i8* %3, align 1
  %68 = sext i8 %67 to i64
  %69 = getelementptr inbounds [26 x [2 x i32]], [26 x [2 x i32]]* %12, i64 0, i64 %68
  %70 = getelementptr inbounds [2 x i32], [2 x i32]* %69, i64 0, i64 1
  store i32 %66, i32* %70, align 4
  br label %71

71:                                               ; preds = %63, %49
  %72 = load i8, i8* %3, align 1
  %73 = sext i8 %72 to i64
  %74 = getelementptr inbounds [26 x [2 x i32]], [26 x [2 x i32]]* %12, i64 0, i64 %73
  %75 = getelementptr inbounds [2 x i32], [2 x i32]* %74, i64 0, i64 0
  %76 = load i32, i32* %75, align 8
  %77 = add nsw i32 %76, 1
  store i32 %77, i32* %75, align 8
  br label %78

78:                                               ; preds = %71
  %79 = load i32, i32* %10, align 4
  %80 = add nsw i32 %79, 1
  store i32 %80, i32* %10, align 4
  br label %42

81:                                               ; preds = %42
  store i32 -1, i32* %10, align 4
  store i32 31, i32* %7, align 4
  store i32 0, i32* %5, align 4
  br label %82

82:                                               ; preds = %109, %81
  %83 = load i32, i32* %5, align 4
  %84 = icmp sle i32 %83, 25
  br i1 %84, label %85, label %112

85:                                               ; preds = %82
  %86 = load i32, i32* %5, align 4
  %87 = sext i32 %86 to i64
  %88 = getelementptr inbounds [26 x [2 x i32]], [26 x [2 x i32]]* %12, i64 0, i64 %87
  %89 = getelementptr inbounds [2 x i32], [2 x i32]* %88, i64 0, i64 0
  %90 = load i32, i32* %89, align 8
  %91 = icmp eq i32 %90, 1
  br i1 %91, label %92, label %108

92:                                               ; preds = %85
  %93 = load i32, i32* %7, align 4
  %94 = load i32, i32* %5, align 4
  %95 = sext i32 %94 to i64
  %96 = getelementptr inbounds [26 x [2 x i32]], [26 x [2 x i32]]* %12, i64 0, i64 %95
  %97 = getelementptr inbounds [2 x i32], [2 x i32]* %96, i64 0, i64 1
  %98 = load i32, i32* %97, align 4
  %99 = icmp sgt i32 %93, %98
  br i1 %99, label %100, label %107

100:                                              ; preds = %92
  %101 = load i32, i32* %5, align 4
  store i32 %101, i32* %10, align 4
  %102 = load i32, i32* %5, align 4
  %103 = sext i32 %102 to i64
  %104 = getelementptr inbounds [26 x [2 x i32]], [26 x [2 x i32]]* %12, i64 0, i64 %103
  %105 = getelementptr inbounds [2 x i32], [2 x i32]* %104, i64 0, i64 1
  %106 = load i32, i32* %105, align 4
  store i32 %106, i32* %7, align 4
  br label %107

107:                                              ; preds = %100, %92
  br label %108

108:                                              ; preds = %107, %85
  br label %109

109:                                              ; preds = %108
  %110 = load i32, i32* %5, align 4
  %111 = add nsw i32 %110, 1
  store i32 %111, i32* %5, align 4
  br label %82

112:                                              ; preds = %82
  %113 = load i32, i32* %10, align 4
  %114 = icmp eq i32 %113, -1
  br i1 %114, label %115, label %117

115:                                              ; preds = %112
  %116 = call i32 (i8*, ...) @printf(i8* getelementptr inbounds ([4 x i8], [4 x i8]* @.str.2, i64 0, i64 0))
  br label %121

117:                                              ; preds = %112
  %118 = load i32, i32* %10, align 4
  %119 = add nsw i32 %118, 97
  %120 = call i32 (i8*, ...) @printf(i8* getelementptr inbounds ([4 x i8], [4 x i8]* @.str.3, i64 0, i64 0), i32 %119)
  br label %121

121:                                              ; preds = %117, %115
  br label %122

122:                                              ; preds = %121
  %123 = load i32, i32* %9, align 4
  %124 = add nsw i32 %123, 1
  store i32 %124, i32* %9, align 4
  br label %14

125:                                              ; preds = %14
  %126 = load i32, i32* %1, align 4
  ret i32 %126
}

declare dso_local i32 @__isoc99_scanf(i8*, ...) #1

declare dso_local i32 @printf(i8*, ...) #1


!llvm.module.flags = !{!0}
!llvm.ident = !{!1}

!0 = !{i32 1, !"wchar_size", i32 4}
!1 = !{!"clang version 10.0.0-4ubuntu1 "}
